target datalayout = "e-m:e-p270:32:32-p271:32:32-p272:64:64-i64:64-i128:128-f80:128-n8:16:32:64-S128"
target triple = "x86_64-pc-linux-gnu"

@ett_path = internal global i32 0, align 4
@.str.443 = private unnamed_addr constant [24 x i8] c"Application Data Path: \00", align 1

; Function Attrs: null_pointer_is_valid sspstrong uwtable
define internal i32 @dissect_s_validator_app_data_path(ptr noundef %0, ptr noundef %1, ptr noundef %2, ptr noundef %3, i32 noundef %4, i32 noundef %5) #0 {
  %7 = alloca ptr, align 8
  %8 = alloca ptr, align 8
  %9 = alloca ptr, align 8
  %10 = alloca ptr, align 8
  %11 = alloca i32, align 4
  %12 = alloca i32, align 4
  %13 = alloca ptr, align 8
  %14 = alloca ptr, align 8
  store ptr %0, ptr %7, align 8
  store ptr %1, ptr %8, align 8
  store ptr %2, ptr %9, align 8
  store ptr %3, ptr %10, align 8
  store i32 %4, ptr %11, align 4
  store i32 %5, ptr %12, align 4
  call void @llvm.lifetime.start.p0(i64 8, ptr %13) #11
  call void @llvm.lifetime.start.p0(i64 8, ptr %14) #11
  %15 = load ptr, ptr %8, align 8
  %16 = load ptr, ptr %10, align 8
  %17 = load i32, ptr @ett_path, align 4
  %18 = call ptr @proto_tree_add_subtree(ptr noundef %15, ptr noundef %16, i32 noundef 0, i32 noundef 0, i32 noundef %17, ptr noundef %13, ptr noundef @.str.443)
  store ptr %18, ptr %14, align 8
  %19 = load ptr, ptr %10, align 8
  %20 = load ptr, ptr %7, align 8
  %21 = load ptr, ptr %14, align 8
  %22 = load ptr, ptr %13, align 8
  %23 = load i32, ptr %11, align 4
  %24 = load i32, ptr %12, align 4
  call void @dissect_epath(ptr noundef %19, ptr noundef %20, ptr noundef %21, ptr noundef %22, i32 noundef %23, i32 noundef %24, i1 noundef zeroext false, i1 noundef zeroext false, ptr noundef null, ptr noundef null, i32 noundef 0, ptr noundef null, i1 noundef zeroext false)
  %25 = load i32, ptr %12, align 4
  call void @llvm.lifetime.end.p0(i64 8, ptr %14) #11
  call void @llvm.lifetime.end.p0(i64 8, ptr %13) #11
  ret i32 %25
}