; Function Attrs: null_pointer_is_valid sspstrong uwtable
define internal noundef i32 @dissect_s_validator_app_data_path(ptr noundef %0, ptr noundef %1, ptr readnone captures(none) %2, ptr noundef %3, i32 noundef %4, i32 noundef returned %5) #2 {
  %7 = alloca ptr, align 8
  call void @llvm.lifetime.start.p0(i64 8, ptr nonnull %7) #7
  %8 = load i32, ptr @ett_path, align 4
  %9 = call ptr @proto_tree_add_subtree(ptr noundef %1, ptr noundef %3, i32 noundef 0, i32 noundef 0, i32 noundef %8, ptr noundef nonnull %7, ptr noundef nonnull @.str.443)
  %10 = load ptr, ptr %7, align 8
  call void @dissect_epath(ptr noundef %3, ptr noundef %0, ptr noundef %9, ptr noundef %10, i32 noundef %4, i32 noundef %5, i1 noundef zeroext false, i1 noundef zeroext false, ptr noundef null, ptr noundef null, i32 noundef 0, ptr noundef null, i1 noundef zeroext false)
  call void @llvm.lifetime.end.p0(i64 8, ptr nonnull %7) #7
  ret i32 %5
}